target datalayout = "e-m:e-p270:32:32-p271:32:32-p272:64:64-i64:64-i128:128-f80:128-n8:16:32:64-S128"
target triple = "x86_64-pc-linux-gnu"

%struct.BiquadsContext = type { ptr, i32, i32, i32, i32, i32, i32, i32, i32, double, double, double, double, ptr, %struct.AVChannelLayout, i32, i32, [3 x double], [3 x double], [3 x float], [3 x float], [3 x double], [3 x double], [3 x ptr], ptr, [2 x ptr], i32, i64, i32, ptr }
%struct.AVChannelLayout = type { i32, i32, %union.anon.1, ptr }
%union.anon.1 = type { i64 }

; Function Attrs: nounwind uwtable
define internal void @biquad_latt_s32(ptr noundef %0, ptr noundef %1, ptr noundef %2, i32 noundef %3, ptr noundef %4, ptr noundef %5, i32 noundef %6) #1 {
  %8 = alloca ptr, align 8
  %9 = alloca ptr, align 8
  %10 = alloca ptr, align 8
  %11 = alloca i32, align 4
  %12 = alloca ptr, align 8
  %13 = alloca ptr, align 8
  %14 = alloca i32, align 4
  %15 = alloca ptr, align 8
  %16 = alloca ptr, align 8
  %17 = alloca ptr, align 8
  %18 = alloca ptr, align 8
  %19 = alloca ptr, align 8
  %20 = alloca double, align 8
  %21 = alloca double, align 8
  %22 = alloca double, align 8
  %23 = alloca double, align 8
  %24 = alloca double, align 8
  %25 = alloca double, align 8
  %26 = alloca double, align 8
  %27 = alloca double, align 8
  %28 = alloca double, align 8
  %29 = alloca double, align 8
  %30 = alloca double, align 8
  %31 = alloca double, align 8
  %32 = alloca double, align 8
  %33 = alloca i32, align 4
  store ptr %0, ptr %8, align 8, !tbaa !22
  store ptr %1, ptr %9, align 8, !tbaa !36
  store ptr %2, ptr %10, align 8, !tbaa !36
  store i32 %3, ptr %11, align 4, !tbaa !31
  store ptr %4, ptr %12, align 8, !tbaa !36
  store ptr %5, ptr %13, align 8, !tbaa !82
  store i32 %6, ptr %14, align 4, !tbaa !31
  call void @llvm.lifetime.start.p0(i64 8, ptr %15) #11
  %34 = load ptr, ptr %9, align 8, !tbaa !36
  store ptr %34, ptr %15, align 8, !tbaa !82
  call void @llvm.lifetime.start.p0(i64 8, ptr %16) #11
  %35 = load ptr, ptr %10, align 8, !tbaa !36
  store ptr %35, ptr %16, align 8, !tbaa !82
  call void @llvm.lifetime.start.p0(i64 8, ptr %17) #11
  %36 = load ptr, ptr %12, align 8, !tbaa !36
  store ptr %36, ptr %17, align 8, !tbaa !91
  call void @llvm.lifetime.start.p0(i64 8, ptr %18) #11
  %37 = load ptr, ptr %8, align 8, !tbaa !22
  %38 = getelementptr inbounds nuw %struct.BiquadsContext, ptr %37, i32 0, i32 17
  %39 = getelementptr inbounds [3 x double], ptr %38, i64 0, i64 0
  store ptr %39, ptr %18, align 8, !tbaa !91
  call void @llvm.lifetime.start.p0(i64 8, ptr %19) #11
  %40 = load ptr, ptr %8, align 8, !tbaa !22
  %41 = getelementptr inbounds nuw %struct.BiquadsContext, ptr %40, i32 0, i32 18
  %42 = getelementptr inbounds [3 x double], ptr %41, i64 0, i64 0
  store ptr %42, ptr %19, align 8, !tbaa !91
  call void @llvm.lifetime.start.p0(i64 8, ptr %20) #11
  %43 = load ptr, ptr %18, align 8, !tbaa !91
  %44 = getelementptr inbounds double, ptr %43, i64 1
  %45 = load double, ptr %44, align 8, !tbaa !55
  store double %45, ptr %20, align 8, !tbaa !55
  call void @llvm.lifetime.start.p0(i64 8, ptr %21) #11
  %46 = load ptr, ptr %18, align 8, !tbaa !91
  %47 = getelementptr inbounds double, ptr %46, i64 2
  %48 = load double, ptr %47, align 8, !tbaa !55
  store double %48, ptr %21, align 8, !tbaa !55
  call void @llvm.lifetime.start.p0(i64 8, ptr %22) #11
  %49 = load ptr, ptr %19, align 8, !tbaa !91
  %50 = getelementptr inbounds double, ptr %49, i64 0
  %51 = load double, ptr %50, align 8, !tbaa !55
  store double %51, ptr %22, align 8, !tbaa !55
  call void @llvm.lifetime.start.p0(i64 8, ptr %23) #11
  %52 = load ptr, ptr %19, align 8, !tbaa !91
  %53 = getelementptr inbounds double, ptr %52, i64 1
  %54 = load double, ptr %53, align 8, !tbaa !55
  store double %54, ptr %23, align 8, !tbaa !55
  call void @llvm.lifetime.start.p0(i64 8, ptr %24) #11
  %55 = load ptr, ptr %19, align 8, !tbaa !91
  %56 = getelementptr inbounds double, ptr %55, i64 2
  %57 = load double, ptr %56, align 8, !tbaa !55
  store double %57, ptr %24, align 8, !tbaa !55
  call void @llvm.lifetime.start.p0(i64 8, ptr %25) #11
  %58 = load ptr, ptr %17, align 8, !tbaa !91
  %59 = getelementptr inbounds double, ptr %58, i64 0
  %60 = load double, ptr %59, align 8, !tbaa !55
  store double %60, ptr %25, align 8, !tbaa !55
  call void @llvm.lifetime.start.p0(i64 8, ptr %26) #11
  %61 = load ptr, ptr %17, align 8, !tbaa !91
  %62 = getelementptr inbounds double, ptr %61, i64 1
  %63 = load double, ptr %62, align 8, !tbaa !55
  store double %63, ptr %26, align 8, !tbaa !55
  call void @llvm.lifetime.start.p0(i64 8, ptr %27) #11
  %64 = load ptr, ptr %8, align 8, !tbaa !22
  %65 = getelementptr inbounds nuw %struct.BiquadsContext, ptr %64, i32 0, i32 12
  %66 = load double, ptr %65, align 8, !tbaa !87
  store double %66, ptr %27, align 8, !tbaa !55
  call void @llvm.lifetime.start.p0(i64 8, ptr %28) #11
  %67 = load double, ptr %27, align 8, !tbaa !55
  %68 = fsub nsz double 1.000000e+00, %67
  store double %68, ptr %28, align 8, !tbaa !55
  call void @llvm.lifetime.start.p0(i64 8, ptr %29) #11
  call void @llvm.lifetime.start.p0(i64 8, ptr %30) #11
  call void @llvm.lifetime.start.p0(i64 8, ptr %31) #11
  call void @llvm.lifetime.start.p0(i64 8, ptr %32) #11
  call void @llvm.lifetime.start.p0(i64 4, ptr %33) #11
  store i32 0, ptr %33, align 4, !tbaa !31
  br label %69

69:                                               ; preds = %160, %7
  %70 = load i32, ptr %33, align 4, !tbaa !31
  %71 = load i32, ptr %11, align 4, !tbaa !31
  %72 = icmp slt i32 %70, %71
  br i1 %72, label %74, label %73

73:                                               ; preds = %69
  call void @llvm.lifetime.end.p0(i64 4, ptr %33) #11
  br label %163

74:                                               ; preds = %69
  store double 0.000000e+00, ptr %30, align 8, !tbaa !55
  %75 = load ptr, ptr %15, align 8, !tbaa !82
  %76 = load i32, ptr %33, align 4, !tbaa !31
  %77 = sext i32 %76 to i64
  %78 = getelementptr inbounds i32, ptr %75, i64 %77
  %79 = load i32, ptr %78, align 4, !tbaa !31
  %80 = sitofp i32 %79 to double
  store double %80, ptr %29, align 8, !tbaa !55
  %81 = load double, ptr %29, align 8, !tbaa !55
  %82 = load double, ptr %21, align 8, !tbaa !55
  %83 = load double, ptr %25, align 8, !tbaa !55
  %84 = fneg nsz double %82
  %85 = call nsz double @llvm.fmuladd.f64(double %84, double %83, double %81)
  store double %85, ptr %31, align 8, !tbaa !55
  %86 = load double, ptr %31, align 8, !tbaa !55
  %87 = load double, ptr %21, align 8, !tbaa !55
  %88 = load double, ptr %25, align 8, !tbaa !55
  %89 = call nsz double @llvm.fmuladd.f64(double %86, double %87, double %88)
  store double %89, ptr %32, align 8, !tbaa !55
  %90 = load double, ptr %32, align 8, !tbaa !55
  %91 = load double, ptr %24, align 8, !tbaa !55
  %92 = load double, ptr %30, align 8, !tbaa !55
  %93 = call nsz double @llvm.fmuladd.f64(double %90, double %91, double %92)
  store double %93, ptr %30, align 8, !tbaa !55
  %94 = load double, ptr %31, align 8, !tbaa !55
  %95 = load double, ptr %20, align 8, !tbaa !55
  %96 = load double, ptr %26, align 8, !tbaa !55
  %97 = fneg nsz double %95
  %98 = call nsz double @llvm.fmuladd.f64(double %97, double %96, double %94)
  store double %98, ptr %31, align 8, !tbaa !55
  %99 = load double, ptr %31, align 8, !tbaa !55
  %100 = load double, ptr %20, align 8, !tbaa !55
  %101 = load double, ptr %26, align 8, !tbaa !55
  %102 = call nsz double @llvm.fmuladd.f64(double %99, double %100, double %101)
  store double %102, ptr %32, align 8, !tbaa !55
  %103 = load double, ptr %32, align 8, !tbaa !55
  %104 = load double, ptr %23, align 8, !tbaa !55
  %105 = load double, ptr %30, align 8, !tbaa !55
  %106 = call nsz double @llvm.fmuladd.f64(double %103, double %104, double %105)
  store double %106, ptr %30, align 8, !tbaa !55
  %107 = load double, ptr %31, align 8, !tbaa !55
  %108 = load double, ptr %22, align 8, !tbaa !55
  %109 = load double, ptr %30, align 8, !tbaa !55
  %110 = call nsz double @llvm.fmuladd.f64(double %107, double %108, double %109)
  store double %110, ptr %30, align 8, !tbaa !55
  %111 = load double, ptr %32, align 8, !tbaa !55
  store double %111, ptr %25, align 8, !tbaa !55
  %112 = load double, ptr %31, align 8, !tbaa !55
  store double %112, ptr %26, align 8, !tbaa !55
  %113 = load double, ptr %30, align 8, !tbaa !55
  %114 = load double, ptr %27, align 8, !tbaa !55
  %115 = load double, ptr %29, align 8, !tbaa !55
  %116 = load double, ptr %28, align 8, !tbaa !55
  %117 = fmul nsz double %115, %116
  %118 = call nsz double @llvm.fmuladd.f64(double %113, double %114, double %117)
  store double %118, ptr %30, align 8, !tbaa !55
  %119 = load i32, ptr %14, align 4, !tbaa !31
  %120 = icmp ne i32 %119, 0
  br i1 %120, label %121, label %128

121:                                              ; preds = %74
  %122 = load double, ptr %29, align 8, !tbaa !55
  %123 = fptosi double %122 to i32
  %124 = load ptr, ptr %16, align 8, !tbaa !82
  %125 = load i32, ptr %33, align 4, !tbaa !31
  %126 = sext i32 %125 to i64
  %127 = getelementptr inbounds i32, ptr %124, i64 %126
  store i32 %123, ptr %127, align 4, !tbaa !31
  br label %159

128:                                              ; preds = %74
  %129 = load double, ptr %30, align 8, !tbaa !55
  %130 = fcmp nsz olt double %129, 0xC1E0000000000000
  br i1 %130, label %131, label %139

131:                                              ; preds = %128
  %132 = load ptr, ptr %13, align 8, !tbaa !82
  %133 = load i32, ptr %132, align 4, !tbaa !31
  %134 = add nsw i32 %133, 1
  store i32 %134, ptr %132, align 4, !tbaa !31
  %135 = load ptr, ptr %16, align 8, !tbaa !82
  %136 = load i32, ptr %33, align 4, !tbaa !31
  %137 = sext i32 %136 to i64
  %138 = getelementptr inbounds i32, ptr %135, i64 %137
  store i32 -2147483648, ptr %138, align 4, !tbaa !31
  br label %158

139:                                              ; preds = %128
  %140 = load double, ptr %30, align 8, !tbaa !55
  %141 = fcmp nsz ogt double %140, 0x41DFFFFFFFC00000
  br i1 %141, label %142, label %150

142:                                              ; preds = %139
  %143 = load ptr, ptr %13, align 8, !tbaa !82
  %144 = load i32, ptr %143, align 4, !tbaa !31
  %145 = add nsw i32 %144, 1
  store i32 %145, ptr %143, align 4, !tbaa !31
  %146 = load ptr, ptr %16, align 8, !tbaa !82
  %147 = load i32, ptr %33, align 4, !tbaa !31
  %148 = sext i32 %147 to i64
  %149 = getelementptr inbounds i32, ptr %146, i64 %148
  store i32 2147483647, ptr %149, align 4, !tbaa !31
  br label %157

150:                                              ; preds = %139
  %151 = load double, ptr %30, align 8, !tbaa !55
  %152 = fptosi double %151 to i32
  %153 = load ptr, ptr %16, align 8, !tbaa !82
  %154 = load i32, ptr %33, align 4, !tbaa !31
  %155 = sext i32 %154 to i64
  %156 = getelementptr inbounds i32, ptr %153, i64 %155
  store i32 %152, ptr %156, align 4, !tbaa !31
  br label %157

157:                                              ; preds = %150, %142
  br label %158

158:                                              ; preds = %157, %131
  br label %159

159:                                              ; preds = %158, %121
  br label %160

160:                                              ; preds = %159
  %161 = load i32, ptr %33, align 4, !tbaa !31
  %162 = add nsw i32 %161, 1
  store i32 %162, ptr %33, align 4, !tbaa !31
  br label %69, !llvm.loop !108

163:                                              ; preds = %73
  %164 = load double, ptr %25, align 8, !tbaa !55
  %165 = load ptr, ptr %17, align 8, !tbaa !91
  %166 = getelementptr inbounds double, ptr %165, i64 0
  store double %164, ptr %166, align 8, !tbaa !55
  %167 = load double, ptr %26, align 8, !tbaa !55
  %168 = load ptr, ptr %17, align 8, !tbaa !91
  %169 = getelementptr inbounds double, ptr %168, i64 1
  store double %167, ptr %169, align 8, !tbaa !55
  call void @llvm.lifetime.end.p0(i64 8, ptr %32) #11
  call void @llvm.lifetime.end.p0(i64 8, ptr %31) #11
  call void @llvm.lifetime.end.p0(i64 8, ptr %30) #11
  call void @llvm.lifetime.end.p0(i64 8, ptr %29) #11
  call void @llvm.lifetime.end.p0(i64 8, ptr %28) #11
  call void @llvm.lifetime.end.p0(i64 8, ptr %27) #11
  call void @llvm.lifetime.end.p0(i64 8, ptr %26) #11
  call void @llvm.lifetime.end.p0(i64 8, ptr %25) #11
  call void @llvm.lifetime.end.p0(i64 8, ptr %24) #11
  call void @llvm.lifetime.end.p0(i64 8, ptr %23) #11
  call void @llvm.lifetime.end.p0(i64 8, ptr %22) #11
  call void @llvm.lifetime.end.p0(i64 8, ptr %21) #11
  call void @llvm.lifetime.end.p0(i64 8, ptr %20) #11
  call void @llvm.lifetime.end.p0(i64 8, ptr %19) #11
  call void @llvm.lifetime.end.p0(i64 8, ptr %18) #11
  call void @llvm.lifetime.end.p0(i64 8, ptr %17) #11
  call void @llvm.lifetime.end.p0(i64 8, ptr %16) #11
  call void @llvm.lifetime.end.p0(i64 8, ptr %15) #11
  ret void
}