; Function Attrs: nofree norecurse nosync nounwind memory(argmem: readwrite) uwtable
define internal void @biquad_latt_s32(ptr noundef readonly captures(none) %0, ptr noundef readonly captures(none) %1, ptr noundef writeonly captures(none) %2, i32 noundef %3, ptr noundef captures(none) %4, ptr noundef captures(none) %5, i32 noundef %6) #7 {
  %8 = getelementptr inbounds nuw i8, ptr %0, i64 136
  %9 = getelementptr inbounds nuw i8, ptr %0, i64 120
  %10 = load double, ptr %9, align 8, !tbaa !53
  %11 = getelementptr inbounds nuw i8, ptr %0, i64 128
  %12 = load double, ptr %11, align 8, !tbaa !53
  %13 = load double, ptr %8, align 8, !tbaa !53
  %14 = getelementptr inbounds nuw i8, ptr %0, i64 144
  %15 = load double, ptr %14, align 8, !tbaa !53
  %16 = getelementptr inbounds nuw i8, ptr %0, i64 152
  %17 = load double, ptr %16, align 8, !tbaa !53
  %18 = load double, ptr %4, align 8, !tbaa !53
  %19 = getelementptr inbounds nuw i8, ptr %4, i64 8
  %20 = load double, ptr %19, align 8, !tbaa !53
  %21 = getelementptr inbounds nuw i8, ptr %0, i64 64
  %22 = load double, ptr %21, align 8, !tbaa !75
  %23 = fsub nsz double 1.000000e+00, %22
  %24 = icmp sgt i32 %3, 0
  br i1 %24, label %.lr.ph, label %._crit_edge

.lr.ph:                                           ; preds = %7
  %25 = fneg nsz double %12
  %26 = fneg nsz double %10
  %.not = icmp eq i32 %6, 0
  %wide.trip.count80 = zext nneg i32 %3 to i64
  br i1 %.not, label %.lr.ph.split.us, label %.lr.ph.split

.lr.ph.split.us:                                  ; preds = %.lr.ph, %50
  %indvars.iv77 = phi i64 [ %indvars.iv.next78, %50 ], [ 0, %.lr.ph ]
  %.06468.us = phi double [ %34, %50 ], [ %18, %.lr.ph ]
  %.06567.us = phi double [ %33, %50 ], [ %20, %.lr.ph ]
  %27 = getelementptr inbounds nuw i32, ptr %1, i64 %indvars.iv77
  %28 = load i32, ptr %27, align 4, !tbaa !30
  %29 = sitofp i32 %28 to double
  %30 = tail call nsz double @llvm.fmuladd.f64(double %25, double %.06468.us, double %29)
  %31 = tail call nsz double @llvm.fmuladd.f64(double %30, double %12, double %.06468.us)
  %32 = fmul nsz double %17, %31
  %33 = tail call nsz double @llvm.fmuladd.f64(double %26, double %.06567.us, double %30)
  %34 = tail call nsz double @llvm.fmuladd.f64(double %33, double %10, double %.06567.us)
  %35 = tail call nsz double @llvm.fmuladd.f64(double %34, double %15, double %32)
  %36 = tail call nsz double @llvm.fmuladd.f64(double %33, double %13, double %35)
  %37 = fmul nsz double %23, %29
  %38 = tail call nsz double @llvm.fmuladd.f64(double %36, double %22, double %37)
  %39 = fcmp nsz olt double %38, 0xC1E0000000000000
  br i1 %39, label %47, label %40

40:                                               ; preds = %.lr.ph.split.us
  %41 = fcmp nsz ogt double %38, 0x41DFFFFFFFC00000
  br i1 %41, label %44, label %42

42:                                               ; preds = %40
  %43 = fptosi double %38 to i32
  br label %50

44:                                               ; preds = %40
  %45 = load i32, ptr %5, align 4, !tbaa !30
  %46 = add nsw i32 %45, 1
  store i32 %46, ptr %5, align 4, !tbaa !30
  br label %50

47:                                               ; preds = %.lr.ph.split.us
  %48 = load i32, ptr %5, align 4, !tbaa !30
  %49 = add nsw i32 %48, 1
  store i32 %49, ptr %5, align 4, !tbaa !30
  br label %50

50:                                               ; preds = %47, %44, %42
  %.sink = phi i32 [ -2147483648, %47 ], [ 2147483647, %44 ], [ %43, %42 ]
  %51 = getelementptr inbounds nuw i32, ptr %2, i64 %indvars.iv77
  store i32 %.sink, ptr %51, align 4, !tbaa !30
  %indvars.iv.next78 = add nuw nsw i64 %indvars.iv77, 1
  %exitcond81.not = icmp eq i64 %indvars.iv.next78, %wide.trip.count80
  br i1 %exitcond81.not, label %._crit_edge, label %.lr.ph.split.us, !llvm.loop !95

._crit_edge:                                      ; preds = %.lr.ph.split, %50, %7
  %.065.lcssa = phi double [ %20, %7 ], [ %33, %50 ], [ %56, %.lr.ph.split ]
  %.064.lcssa = phi double [ %18, %7 ], [ %34, %50 ], [ %57, %.lr.ph.split ]
  store double %.064.lcssa, ptr %4, align 8, !tbaa !53
  store double %.065.lcssa, ptr %19, align 8, !tbaa !53
  ret void

.lr.ph.split:                                     ; preds = %.lr.ph, %.lr.ph.split
  %indvars.iv = phi i64 [ %indvars.iv.next, %.lr.ph.split ], [ 0, %.lr.ph ]
  %.06468 = phi double [ %57, %.lr.ph.split ], [ %18, %.lr.ph ]
  %.06567 = phi double [ %56, %.lr.ph.split ], [ %20, %.lr.ph ]
  %52 = getelementptr inbounds nuw i32, ptr %1, i64 %indvars.iv
  %53 = load i32, ptr %52, align 4, !tbaa !30
  %54 = sitofp i32 %53 to double
  %55 = tail call nsz double @llvm.fmuladd.f64(double %25, double %.06468, double %54)
  %56 = tail call nsz double @llvm.fmuladd.f64(double %26, double %.06567, double %55)
  %57 = tail call nsz double @llvm.fmuladd.f64(double %56, double %10, double %.06567)
  %58 = getelementptr inbounds nuw i32, ptr %2, i64 %indvars.iv
  store i32 %53, ptr %58, align 4, !tbaa !30
  %indvars.iv.next = add nuw nsw i64 %indvars.iv, 1
  %exitcond.not = icmp eq i64 %indvars.iv.next, %wide.trip.count80
  br i1 %exitcond.not, label %._crit_edge, label %.lr.ph.split, !llvm.loop !95
}